; ModuleID = '10/399.c'
source_filename = "10/399.c"
target datalayout = "e-m:e-p270:32:32-p271:32:32-p272:64:64-i64:64-f80:128-n8:16:32:64-S128"
target triple = "x86_64-pc-linux-gnu"

@.str = private unnamed_addr constant [3 x i8] c"%d\00", align 1
@.str.1 = private unnamed_addr constant [4 x i8] c"%d\0A\00", align 1

; Function Attrs: noinline nounwind uwtable
define dso_local i32 @main() #0 {
  %1 = alloca i32, align 4
  %2 = alloca i32, align 4
  %3 = alloca i32, align 4
  %4 = alloca [25 x i32], align 16
  %5 = alloca [25 x i32], align 16
  %6 = alloca i32, align 4
  %7 = alloca i32, align 4
  store i32 0, i32* %1, align 4
  %8 = call i32 (i8*, ...) @__isoc99_scanf(i8* getelementptr inbounds ([3 x i8], [3 x i8]* @.str, i64 0, i64 0), i32* %7)
  store i32 0, i32* %2, align 4
  br label %9

9:                                                ; preds = %18, %0
  %10 = load i32, i32* %2, align 4
  %11 = load i32, i32* %7, align 4
  %12 = icmp slt i32 %10, %11
  br i1 %12, label %13, label %21

13:                                               ; preds = %9
  %14 = load i32, i32* %2, align 4
  %15 = sext i32 %14 to i64
  %16 = getelementptr inbounds [25 x i32], [25 x i32]* %4, i64 0, i64 %15
  %17 = call i32 (i8*, ...) @__isoc99_scanf(i8* getelementptr inbounds ([3 x i8], [3 x i8]* @.str, i64 0, i64 0), i32* %16)
  br label %18

18:                                               ; preds = %13
  %19 = load i32, i32* %2, align 4
  %20 = add nsw i32 %19, 1
  store i32 %20, i32* %2, align 4
  br label %9

21:                                               ; preds = %9
  %22 = getelementptr inbounds [25 x i32], [25 x i32]* %5, i64 0, i64 0
  store i32 1, i32* %22, align 16
  store i32 1, i32* %2, align 4
  br label %23

23:                                               ; preds = %70, %21
  %24 = load i32, i32* %2, align 4
  %25 = load i32, i32* %7, align 4
  %26 = icmp slt i32 %24, %25
  br i1 %26, label %27, label %73

27:                                               ; preds = %23
  %28 = load i32, i32* %2, align 4
  %29 = sext i32 %28 to i64
  %30 = getelementptr inbounds [25 x i32], [25 x i32]* %5, i64 0, i64 %29
  store i32 1, i32* %30, align 4
  store i32 0, i32* %3, align 4
  br label %31

31:                                               ; preds = %66, %27
  %32 = load i32, i32* %3, align 4
  %33 = load i32, i32* %2, align 4
  %34 = icmp slt i32 %32, %33
  br i1 %34, label %35, label %69

35:                                               ; preds = %31
  %36 = load i32, i32* %3, align 4
  %37 = sext i32 %36 to i64
  %38 = getelementptr inbounds [25 x i32], [25 x i32]* %5, i64 0, i64 %37
  %39 = load i32, i32* %38, align 4
  %40 = add nsw i32 %39, 1
  %41 = load i32, i32* %2, align 4
  %42 = sext i32 %41 to i64
  %43 = getelementptr inbounds [25 x i32], [25 x i32]* %5, i64 0, i64 %42
  %44 = load i32, i32* %43, align 4
  %45 = icmp sgt i32 %40, %44
  br i1 %45, label %46, label %65

46:                                               ; preds = %35
  %47 = load i32, i32* %3, align 4
  %48 = sext i32 %47 to i64
  %49 = getelementptr inbounds [25 x i32], [25 x i32]* %4, i64 0, i64 %48
  %50 = load i32, i32* %49, align 4
  %51 = load i32, i32* %2, align 4
  %52 = sext i32 %51 to i64
  %53 = getelementptr inbounds [25 x i32], [25 x i32]* %4, i64 0, i64 %52
  %54 = load i32, i32* %53, align 4
  %55 = icmp sge i32 %50, %54
  br i1 %55, label %56, label %65

56:                                               ; preds = %46
  %57 = load i32, i32* %3, align 4
  %58 = sext i32 %57 to i64
  %59 = getelementptr inbounds [25 x i32], [25 x i32]* %5, i64 0, i64 %58
  %60 = load i32, i32* %59, align 4
  %61 = add nsw i32 %60, 1
  %62 = load i32, i32* %2, align 4
  %63 = sext i32 %62 to i64
  %64 = getelementptr inbounds [25 x i32], [25 x i32]* %5, i64 0, i64 %63
  store i32 %61, i32* %64, align 4
  br label %65

65:                                               ; preds = %56, %46, %35
  br label %66

66:                                               ; preds = %65
  %67 = load i32, i32* %3, align 4
  %68 = add nsw i32 %67, 1
  store i32 %68, i32* %3, align 4
  br label %31

69:                                               ; preds = %31
  br label %70

70:                                               ; preds = %69
  %71 = load i32, i32* %2, align 4
  %72 = add nsw i32 %71, 1
  store i32 %72, i32* %2, align 4
  br label %23

73:                                               ; preds = %23
  store i32 0, i32* %6, align 4
  store i32 0, i32* %2, align 4
  br label %74

74:                                               ; preds = %91, %73
  %75 = load i32, i32* %2, align 4
  %76 = load i32, i32* %7, align 4
  %77 = icmp slt i32 %75, %76
  br i1 %77, label %78, label %94

78:                                               ; preds = %74
  %79 = load i32, i32* %2, align 4
  %80 = sext i32 %79 to i64
  %81 = getelementptr inbounds [25 x i32], [25 x i32]* %5, i64 0, i64 %80
  %82 = load i32, i32* %81, align 4
  %83 = load i32, i32* %6, align 4
  %84 = icmp sgt i32 %82, %83
  br i1 %84, label %85, label %90

85:                                               ; preds = %78
  %86 = load i32, i32* %2, align 4
  %87 = sext i32 %86 to i64
  %88 = getelementptr inbounds [25 x i32], [25 x i32]* %5, i64 0, i64 %87
  %89 = load i32, i32* %88, align 4
  store i32 %89, i32* %6, align 4
  br label %90

90:                                               ; preds = %85, %78
  br label %91

91:                                               ; preds = %90
  %92 = load i32, i32* %2, align 4
  %93 = add nsw i32 %92, 1
  store i32 %93, i32* %2, align 4
  br label %74

94:                                               ; preds = %74
  %95 = load i32, i32* %6, align 4
  %96 = call i32 (i8*, ...) @printf(i8* getelementptr inbounds ([4 x i8], [4 x i8]* @.str.1, i64 0, i64 0), i32 %95)
  %97 = load i32, i32* %1, align 4
  ret i32 %97
}

declare dso_local i32 @__isoc99_scanf(i8*, ...) #1

declare dso_local i32 @printf(i8*, ...) #1


!llvm.module.flags = !{!0}
!llvm.ident = !{!1}

!0 = !{i32 1, !"wchar_size", i32 4}
!1 = !{!"clang version 10.0.0-4ubuntu1 "}
